; Function Attrs: mustprogress nofree norecurse nosync nounwind memory(readwrite, inaccessiblemem: none) uwtable
define hidden void @_ZN2cv11bioinspired11RetinaColor31_applyImageColorSpaceConversionERKSt8valarrayIfERS3_PKf(ptr noundef nonnull readnone align 8 captures(none) dereferenceable(349) %0, ptr noundef nonnull readonly align 8 captures(none) dereferenceable(16) %1, ptr noundef nonnull readonly align 8 captures(none) dereferenceable(16) %2, ptr noundef readonly captures(none) %3) local_unnamed_addr #9 align 2 {
  %5 = load i64, ptr %1, align 8, !tbaa !13
  %6 = udiv i64 %5, 3
  %7 = trunc i64 %6 to i32
  %.not = icmp eq i32 %7, 0
  br i1 %.not, label %._crit_edge, label %.lr.ph

.lr.ph:                                           ; preds = %4
  %8 = getelementptr inbounds nuw i8, ptr %2, i64 8
  %9 = load ptr, ptr %8, align 8, !tbaa !16
  %10 = getelementptr inbounds nuw i8, ptr %1, i64 8
  %11 = load ptr, ptr %10, align 8, !tbaa !16
  %12 = shl i64 %5, 1
  %13 = udiv i64 %12, 3
  %14 = and i64 %6, 4294967295
  %15 = getelementptr inbounds nuw i8, ptr %3, i64 4
  %16 = and i64 %13, 4294967295
  %17 = getelementptr inbounds nuw i8, ptr %3, i64 8
  %18 = getelementptr inbounds nuw i8, ptr %3, i64 12
  %19 = getelementptr inbounds nuw i8, ptr %3, i64 16
  %20 = getelementptr inbounds nuw i8, ptr %3, i64 20
  %21 = getelementptr inbounds nuw i8, ptr %3, i64 24
  %22 = getelementptr inbounds nuw i8, ptr %3, i64 28
  %23 = getelementptr inbounds nuw i8, ptr %3, i64 32
  br label %24

._crit_edge:                                      ; preds = %24, %4
  ret void

24:                                               ; preds = %.lr.ph, %24
  %.045 = phi ptr [ %11, %.lr.ph ], [ %52, %24 ]
  %.04044 = phi ptr [ %9, %.lr.ph ], [ %51, %24 ]
  %.04143 = phi i32 [ 0, %.lr.ph ], [ %50, %24 ]
  %25 = load float, ptr %.045, align 4, !tbaa !31
  %26 = load float, ptr %3, align 4, !tbaa !31
  %27 = getelementptr inbounds nuw float, ptr %.045, i64 %14
  %28 = load float, ptr %27, align 4, !tbaa !31
  %29 = load float, ptr %15, align 4, !tbaa !31
  %30 = fmul float %28, %29
  %31 = tail call float @llvm.fmuladd.f32(float %25, float %26, float %30)
  %32 = getelementptr inbounds nuw float, ptr %.045, i64 %16
  %33 = load float, ptr %32, align 4, !tbaa !31
  %34 = load float, ptr %17, align 4, !tbaa !31
  %35 = tail call float @llvm.fmuladd.f32(float %33, float %34, float %31)
  %36 = load float, ptr %18, align 4, !tbaa !31
  %37 = load float, ptr %19, align 4, !tbaa !31
  %38 = fmul float %28, %37
  %39 = tail call float @llvm.fmuladd.f32(float %25, float %36, float %38)
  %40 = load float, ptr %20, align 4, !tbaa !31
  %41 = tail call float @llvm.fmuladd.f32(float %33, float %40, float %39)
  %42 = load float, ptr %21, align 4, !tbaa !31
  %43 = load float, ptr %22, align 4, !tbaa !31
  %44 = fmul float %28, %43
  %45 = tail call float @llvm.fmuladd.f32(float %25, float %42, float %44)
  %46 = load float, ptr %23, align 4, !tbaa !31
  %47 = tail call float @llvm.fmuladd.f32(float %33, float %46, float %45)
  store float %35, ptr %.04044, align 4, !tbaa !31
  %48 = getelementptr inbounds nuw float, ptr %.04044, i64 %14
  store float %41, ptr %48, align 4, !tbaa !31
  %49 = getelementptr inbounds nuw float, ptr %.04044, i64 %16
  store float %47, ptr %49, align 4, !tbaa !31
  %50 = add nuw i32 %.04143, 1
  %51 = getelementptr inbounds nuw i8, ptr %.04044, i64 4
  %52 = getelementptr inbounds nuw i8, ptr %.045, i64 4
  %exitcond.not = icmp eq i32 %50, %7
  br i1 %exitcond.not, label %._crit_edge, label %24, !llvm.loop !208
}